target datalayout = "e-m:e-p270:32:32-p271:32:32-p272:64:64-i64:64-i128:128-f80:128-n8:16:32:64-S128"
target triple = "x86_64-pc-linux-gnu"

%struct.dt_pthread_mutex_t = type { %union.pthread_mutex_t }
%union.pthread_mutex_t = type { %struct.__pthread_mutex_s }
%struct.__pthread_mutex_s = type { i32, i32, i32, i32, i32, i16, i16, %struct.__pthread_internal_list }
%struct.__pthread_internal_list = type { ptr, ptr }
%struct.dt_cache_t = type { %struct.dt_pthread_mutex_t, i64, i64, i64, ptr, ptr, ptr, ptr, ptr, ptr }
%struct.dt_cache_entry_t = type { ptr, i64, i64, ptr, %union.pthread_rwlock_t, i32, i32 }
%union.pthread_rwlock_t = type { %struct.__pthread_rwlock_arch_t }
%struct.__pthread_rwlock_arch_t = type { i32, i32, i32, i32, i32, i32, i32, i32, i8, [7 x i8], i64, i32 }

; Function Attrs: inlinehint nounwind uwtable
define internal i32 @dt_pthread_rwlock_destroy(ptr noundef %0) #1 {
  %2 = alloca ptr, align 8
  %3 = alloca i32, align 4
  store ptr %0, ptr %2, align 8, !tbaa !28
  call void @llvm.lifetime.start.p0(i64 4, ptr %3) #6
  %4 = load ptr, ptr %2, align 8, !tbaa !28
  %5 = call i32 @pthread_rwlock_destroy(ptr noundef %4) #6
  store i32 %5, ptr %3, align 4, !tbaa !38
  %6 = load i32, ptr %3, align 4, !tbaa !38
  call void @llvm.lifetime.end.p0(i64 4, ptr %3) #6
  ret i32 %6
}

; Function Attrs: inlinehint nounwind uwtable
define internal i32 @dt_pthread_rwlock_unlock(ptr noundef %0) #1 {
  %2 = alloca ptr, align 8
  %3 = alloca i32, align 4
  store ptr %0, ptr %2, align 8, !tbaa !28
  call void @llvm.lifetime.start.p0(i64 4, ptr %3) #6
  %4 = load ptr, ptr %2, align 8, !tbaa !28
  %5 = call i32 @pthread_rwlock_unlock(ptr noundef %4) #6
  store i32 %5, ptr %3, align 4, !tbaa !38
  %6 = load i32, ptr %3, align 4, !tbaa !38
  call void @llvm.lifetime.end.p0(i64 4, ptr %3) #6
  ret i32 %6
}

; Function Attrs: inlinehint nounwind uwtable
define internal i32 @dt_pthread_rwlock_trywrlock(ptr noundef %0) #1 {
  %2 = alloca ptr, align 8
  %3 = alloca i32, align 4
  store ptr %0, ptr %2, align 8, !tbaa !28
  call void @llvm.lifetime.start.p0(i64 4, ptr %3) #6
  %4 = load ptr, ptr %2, align 8, !tbaa !28
  %5 = call i32 @pthread_rwlock_trywrlock(ptr noundef %4) #6
  store i32 %5, ptr %3, align 4, !tbaa !38
  %6 = load i32, ptr %3, align 4, !tbaa !38
  call void @llvm.lifetime.end.p0(i64 4, ptr %3) #6
  ret i32 %6
}

; Function Attrs: inlinehint nounwind uwtable
define internal i32 @dt_pthread_mutex_unlock(ptr noundef %0) #1 {
  %2 = alloca ptr, align 8
  store ptr %0, ptr %2, align 8, !tbaa !26
  %3 = load ptr, ptr %2, align 8, !tbaa !26
  %4 = getelementptr inbounds nuw %struct.dt_pthread_mutex_t, ptr %3, i32 0, i32 0
  %5 = call i32 @pthread_mutex_unlock(ptr noundef %4) #6
  ret i32 %5
}

; Function Attrs: inlinehint nounwind uwtable
define internal i32 @dt_pthread_mutex_lock(ptr noundef %0) #1 {
  %2 = alloca ptr, align 8
  store ptr %0, ptr %2, align 8, !tbaa !26
  %3 = load ptr, ptr %2, align 8, !tbaa !26
  %4 = getelementptr inbounds nuw %struct.dt_pthread_mutex_t, ptr %3, i32 0, i32 0
  %5 = call i32 @pthread_mutex_lock(ptr noundef %4) #6
  ret i32 %5
}

; Function Attrs: nounwind uwtable
define i32 @dt_cache_remove(ptr noundef %0, i32 noundef %1) #0 {
  %3 = alloca i32, align 4
  %4 = alloca ptr, align 8
  %5 = alloca i32, align 4
  %6 = alloca ptr, align 8
  %7 = alloca ptr, align 8
  %8 = alloca ptr, align 8
  %9 = alloca i32, align 4
  %10 = alloca i32, align 4
  %11 = alloca i32, align 4
  %12 = alloca i32, align 4
  store ptr %0, ptr %4, align 8, !tbaa !6
  store i32 %1, ptr %5, align 4, !tbaa !38
  call void @llvm.lifetime.start.p0(i64 8, ptr %6) #6
  call void @llvm.lifetime.start.p0(i64 8, ptr %7) #6
  call void @llvm.lifetime.start.p0(i64 8, ptr %8) #6
  br label %13

13:                                               ; preds = %46, %37, %2
  %14 = load ptr, ptr %4, align 8, !tbaa !6
  %15 = getelementptr inbounds nuw %struct.dt_cache_t, ptr %14, i32 0, i32 0
  %16 = call i32 @dt_pthread_mutex_lock(ptr noundef %15)
  %17 = load ptr, ptr %4, align 8, !tbaa !6
  %18 = getelementptr inbounds nuw %struct.dt_cache_t, ptr %17, i32 0, i32 4
  %19 = load ptr, ptr %18, align 8, !tbaa !25
  %20 = load i32, ptr %5, align 4, !tbaa !38
  %21 = zext i32 %20 to i64
  %22 = inttoptr i64 %21 to ptr
  %23 = call i32 @g_hash_table_lookup_extended(ptr noundef %19, ptr noundef %22, ptr noundef %7, ptr noundef %8)
  store i32 %23, ptr %9, align 4, !tbaa !38
  %24 = load ptr, ptr %8, align 8, !tbaa !28
  store ptr %24, ptr %6, align 8, !tbaa !32
  %25 = load i32, ptr %9, align 4, !tbaa !38
  %26 = icmp ne i32 %25, 0
  br i1 %26, label %31, label %27

27:                                               ; preds = %13
  %28 = load ptr, ptr %4, align 8, !tbaa !6
  %29 = getelementptr inbounds nuw %struct.dt_cache_t, ptr %28, i32 0, i32 0
  %30 = call i32 @dt_pthread_mutex_unlock(ptr noundef %29)
  store i32 1, ptr %3, align 4
  store i32 1, ptr %10, align 4
  br label %104

31:                                               ; preds = %13
  %32 = load ptr, ptr %6, align 8, !tbaa !32
  %33 = getelementptr inbounds nuw %struct.dt_cache_entry_t, ptr %32, i32 0, i32 4
  %34 = call i32 @dt_pthread_rwlock_trywrlock(ptr noundef %33)
  store i32 %34, ptr %11, align 4, !tbaa !38
  %35 = load i32, ptr %11, align 4, !tbaa !38
  %36 = icmp ne i32 %35, 0
  br i1 %36, label %37, label %41

37:                                               ; preds = %31
  %38 = load ptr, ptr %4, align 8, !tbaa !6
  %39 = getelementptr inbounds nuw %struct.dt_cache_t, ptr %38, i32 0, i32 0
  %40 = call i32 @dt_pthread_mutex_unlock(ptr noundef %39)
  call void @g_usleep(i64 noundef 5)
  br label %13

41:                                               ; preds = %31
  %42 = load ptr, ptr %6, align 8, !tbaa !32
  %43 = getelementptr inbounds nuw %struct.dt_cache_entry_t, ptr %42, i32 0, i32 5
  %44 = load i32, ptr %43, align 8, !tbaa !81
  %45 = icmp ne i32 %44, 0
  br i1 %45, label %46, label %53

46:                                               ; preds = %41
  %47 = load ptr, ptr %6, align 8, !tbaa !32
  %48 = getelementptr inbounds nuw %struct.dt_cache_entry_t, ptr %47, i32 0, i32 4
  %49 = call i32 @dt_pthread_rwlock_unlock(ptr noundef %48)
  %50 = load ptr, ptr %4, align 8, !tbaa !6
  %51 = getelementptr inbounds nuw %struct.dt_cache_t, ptr %50, i32 0, i32 0
  %52 = call i32 @dt_pthread_mutex_unlock(ptr noundef %51)
  call void @g_usleep(i64 noundef 5)
  br label %13

53:                                               ; preds = %41
  %54 = load ptr, ptr %4, align 8, !tbaa !6
  %55 = getelementptr inbounds nuw %struct.dt_cache_t, ptr %54, i32 0, i32 4
  %56 = load ptr, ptr %55, align 8, !tbaa !25
  %57 = load i32, ptr %5, align 4, !tbaa !38
  %58 = zext i32 %57 to i64
  %59 = inttoptr i64 %58 to ptr
  %60 = call i32 @g_hash_table_remove(ptr noundef %56, ptr noundef %59)
  store i32 %60, ptr %12, align 4, !tbaa !38
  %61 = load ptr, ptr %4, align 8, !tbaa !6
  %62 = getelementptr inbounds nuw %struct.dt_cache_t, ptr %61, i32 0, i32 5
  %63 = load ptr, ptr %62, align 8, !tbaa !18
  %64 = load ptr, ptr %6, align 8, !tbaa !32
  %65 = getelementptr inbounds nuw %struct.dt_cache_entry_t, ptr %64, i32 0, i32 3
  %66 = load ptr, ptr %65, align 8, !tbaa !42
  %67 = call ptr @g_list_delete_link(ptr noundef %63, ptr noundef %66)
  %68 = load ptr, ptr %4, align 8, !tbaa !6
  %69 = getelementptr inbounds nuw %struct.dt_cache_t, ptr %68, i32 0, i32 5
  store ptr %67, ptr %69, align 8, !tbaa !18
  %70 = load ptr, ptr %4, align 8, !tbaa !6
  %71 = getelementptr inbounds nuw %struct.dt_cache_t, ptr %70, i32 0, i32 7
  %72 = load ptr, ptr %71, align 8, !tbaa !23
  %73 = icmp ne ptr %72, null
  br i1 %73, label %74, label %82

74:                                               ; preds = %53
  %75 = load ptr, ptr %4, align 8, !tbaa !6
  %76 = getelementptr inbounds nuw %struct.dt_cache_t, ptr %75, i32 0, i32 7
  %77 = load ptr, ptr %76, align 8, !tbaa !23
  %78 = load ptr, ptr %4, align 8, !tbaa !6
  %79 = getelementptr inbounds nuw %struct.dt_cache_t, ptr %78, i32 0, i32 9
  %80 = load ptr, ptr %79, align 8, !tbaa !24
  %81 = load ptr, ptr %6, align 8, !tbaa !32
  call void %77(ptr noundef %80, ptr noundef %81)
  br label %86

82:                                               ; preds = %53
  %83 = load ptr, ptr %6, align 8, !tbaa !32
  %84 = getelementptr inbounds nuw %struct.dt_cache_entry_t, ptr %83, i32 0, i32 0
  %85 = load ptr, ptr %84, align 8, !tbaa !34
  call void @free(ptr noundef %85) #6
  br label %86

86:                                               ; preds = %82, %74
  %87 = load ptr, ptr %6, align 8, !tbaa !32
  %88 = getelementptr inbounds nuw %struct.dt_cache_entry_t, ptr %87, i32 0, i32 4
  %89 = call i32 @dt_pthread_rwlock_unlock(ptr noundef %88)
  %90 = load ptr, ptr %6, align 8, !tbaa !32
  %91 = getelementptr inbounds nuw %struct.dt_cache_entry_t, ptr %90, i32 0, i32 4
  %92 = call i32 @dt_pthread_rwlock_destroy(ptr noundef %91)
  %93 = load ptr, ptr %6, align 8, !tbaa !32
  %94 = getelementptr inbounds nuw %struct.dt_cache_entry_t, ptr %93, i32 0, i32 2
  %95 = load i64, ptr %94, align 8, !tbaa !79
  %96 = load ptr, ptr %4, align 8, !tbaa !6
  %97 = getelementptr inbounds nuw %struct.dt_cache_t, ptr %96, i32 0, i32 2
  %98 = load i64, ptr %97, align 8, !tbaa !13
  %99 = sub i64 %98, %95
  store i64 %99, ptr %97, align 8, !tbaa !13
  %100 = load ptr, ptr %6, align 8, !tbaa !32
  call void @g_slice_free1(i64 noundef 96, ptr noundef %100)
  %101 = load ptr, ptr %4, align 8, !tbaa !6
  %102 = getelementptr inbounds nuw %struct.dt_cache_t, ptr %101, i32 0, i32 0
  %103 = call i32 @dt_pthread_mutex_unlock(ptr noundef %102)
  store i32 0, ptr %3, align 4
  store i32 1, ptr %10, align 4
  br label %104

104:                                              ; preds = %86, %27
  call void @llvm.lifetime.end.p0(i64 8, ptr %8) #6
  call void @llvm.lifetime.end.p0(i64 8, ptr %7) #6
  call void @llvm.lifetime.end.p0(i64 8, ptr %6) #6
  %105 = load i32, ptr %3, align 4
  ret i32 %105
}