; Function Attrs: nounwind uwtable
define range(i32 0, 2) i32 @dt_cache_remove(ptr noundef %0, i32 noundef %1) local_unnamed_addr #0 {
  %3 = alloca ptr, align 8
  %4 = alloca ptr, align 8
  call void @llvm.lifetime.start.p0(i64 8, ptr nonnull %3) #8
  call void @llvm.lifetime.start.p0(i64 8, ptr nonnull %4) #8
  %5 = tail call i32 @pthread_mutex_lock(ptr noundef %0) #8
  %6 = getelementptr inbounds nuw i8, ptr %0, i64 64
  %7 = load ptr, ptr %6, align 8, !tbaa !18
  %8 = zext i32 %1 to i64
  %9 = inttoptr i64 %8 to ptr
  %10 = call i32 @g_hash_table_lookup_extended(ptr noundef %7, ptr noundef %9, ptr noundef nonnull %3, ptr noundef nonnull %4) #8
  %.not37 = icmp eq i32 %10, 0
  br i1 %.not37, label %._crit_edge, label %.lr.ph

.lr.ph:                                           ; preds = %2, %.backedge
  %11 = load ptr, ptr %4, align 8, !tbaa !27
  %12 = getelementptr inbounds nuw i8, ptr %11, i64 32
  %13 = call i32 @pthread_rwlock_trywrlock(ptr noundef nonnull %12) #8
  %.not28 = icmp eq i32 %13, 0
  br i1 %.not28, label %18, label %.backedge

.backedge:                                        ; preds = %.lr.ph, %21
  %14 = call i32 @pthread_mutex_unlock(ptr noundef nonnull %0) #8
  call void @g_usleep(i64 noundef 5) #8
  %15 = call i32 @pthread_mutex_lock(ptr noundef nonnull %0) #8
  %16 = load ptr, ptr %6, align 8, !tbaa !18
  %17 = call i32 @g_hash_table_lookup_extended(ptr noundef %16, ptr noundef %9, ptr noundef nonnull %3, ptr noundef nonnull %4) #8
  %.not = icmp eq i32 %17, 0
  br i1 %.not, label %._crit_edge, label %.lr.ph

18:                                               ; preds = %.lr.ph
  %19 = getelementptr inbounds nuw i8, ptr %11, i64 88
  %20 = load i32, ptr %19, align 8, !tbaa !70
  %.not29 = icmp eq i32 %20, 0
  br i1 %.not29, label %23, label %21

21:                                               ; preds = %18
  %22 = call i32 @pthread_rwlock_unlock(ptr noundef nonnull %12) #8
  br label %.backedge

23:                                               ; preds = %18
  %24 = load ptr, ptr %6, align 8, !tbaa !18
  %25 = call i32 @g_hash_table_remove(ptr noundef %24, ptr noundef %9) #8
  %26 = getelementptr inbounds nuw i8, ptr %0, i64 72
  %27 = load ptr, ptr %26, align 8, !tbaa !15
  %28 = getelementptr inbounds nuw i8, ptr %11, i64 24
  %29 = load ptr, ptr %28, align 8, !tbaa !66
  %30 = call ptr @g_list_delete_link(ptr noundef %27, ptr noundef %29) #8
  store ptr %30, ptr %26, align 8, !tbaa !15
  %31 = getelementptr inbounds nuw i8, ptr %0, i64 88
  %32 = load ptr, ptr %31, align 8, !tbaa !22
  %.not30 = icmp eq ptr %32, null
  br i1 %.not30, label %36, label %33

33:                                               ; preds = %23
  %34 = getelementptr inbounds nuw i8, ptr %0, i64 104
  %35 = load ptr, ptr %34, align 8, !tbaa !23
  call void %32(ptr noundef %35, ptr noundef nonnull %11) #8
  br label %38

36:                                               ; preds = %23
  %37 = load ptr, ptr %11, align 8, !tbaa !24
  call void @free(ptr noundef %37) #8
  br label %38

38:                                               ; preds = %36, %33
  %39 = call i32 @pthread_rwlock_unlock(ptr noundef nonnull %12) #8
  %40 = call i32 @pthread_rwlock_destroy(ptr noundef nonnull %12) #8
  %41 = getelementptr inbounds nuw i8, ptr %11, i64 16
  %42 = load i64, ptr %41, align 8, !tbaa !68
  %43 = getelementptr inbounds nuw i8, ptr %0, i64 48
  %44 = load i64, ptr %43, align 8, !tbaa !6
  %45 = sub i64 %44, %42
  store i64 %45, ptr %43, align 8, !tbaa !6
  call void @g_slice_free1(i64 noundef 96, ptr noundef nonnull %11) #8
  br label %._crit_edge

._crit_edge:                                      ; preds = %.backedge, %2, %38
  %.0 = phi i32 [ 0, %38 ], [ 1, %2 ], [ 1, %.backedge ]
  %46 = call i32 @pthread_mutex_unlock(ptr noundef nonnull %0) #8
  call void @llvm.lifetime.end.p0(i64 8, ptr nonnull %4) #8
  call void @llvm.lifetime.end.p0(i64 8, ptr nonnull %3) #8
  ret i32 %.0
}